; Function Attrs: nounwind uwtable
define noundef ptr @Aig_ObjCreateCi(ptr noundef captures(none) %0) local_unnamed_addr #0 {
  %2 = getelementptr inbounds nuw i8, ptr %0, i64 272
  %3 = load ptr, ptr %2, align 8, !tbaa !3
  %4 = tail call ptr @Aig_MmFixedEntryFetch(ptr noundef %3) #11
  tail call void @llvm.memset.p0.i64(ptr noundef nonnull align 8 dereferenceable(48) %4, i8 0, i64 48, i1 false)
  %5 = getelementptr inbounds nuw i8, ptr %0, i64 32
  %6 = load ptr, ptr %5, align 8, !tbaa !21
  %7 = getelementptr i8, ptr %6, i64 4
  %.val.i = load i32, ptr %7, align 4, !tbaa !22
  %8 = getelementptr inbounds nuw i8, ptr %4, i64 36
  store i32 %.val.i, ptr %8, align 4, !tbaa !24
  %9 = load i32, ptr %6, align 8, !tbaa !25
  %10 = icmp eq i32 %.val.i, %9
  br i1 %10, label %11, label %.Vec_PtrGrow.exit11_crit_edge.i.i

.Vec_PtrGrow.exit11_crit_edge.i.i:                ; preds = %1
  %.phi.trans.insert.i.i = getelementptr inbounds nuw i8, ptr %6, i64 8
  %.pre.i.i = load ptr, ptr %.phi.trans.insert.i.i, align 8, !tbaa !26
  br label %Aig_ManFetchMemory.exit

11:                                               ; preds = %1
  %12 = icmp slt i32 %.val.i, 16
  br i1 %12, label %13, label %21

13:                                               ; preds = %11
  %14 = getelementptr inbounds nuw i8, ptr %6, i64 8
  %15 = load ptr, ptr %14, align 8, !tbaa !26
  %.not9.i.i.i = icmp eq ptr %15, null
  br i1 %.not9.i.i.i, label %18, label %16

16:                                               ; preds = %13
  %17 = tail call dereferenceable_or_null(128) ptr @realloc(ptr noundef nonnull %15, i64 noundef 128) #12
  br label %Vec_PtrGrow.exit.i.i

18:                                               ; preds = %13
  %19 = tail call noalias dereferenceable_or_null(128) ptr @malloc(i64 noundef 128) #13
  br label %Vec_PtrGrow.exit.i.i

Vec_PtrGrow.exit.i.i:                             ; preds = %18, %16
  %20 = phi ptr [ %17, %16 ], [ %19, %18 ]
  store ptr %20, ptr %14, align 8, !tbaa !26
  store i32 16, ptr %6, align 8, !tbaa !25
  br label %Aig_ManFetchMemory.exit

21:                                               ; preds = %11
  %22 = shl nuw nsw i32 %.val.i, 1
  %23 = getelementptr inbounds nuw i8, ptr %6, i64 8
  %24 = load ptr, ptr %23, align 8, !tbaa !26
  %.not9.i10.i.i = icmp eq ptr %24, null
  %25 = zext nneg i32 %22 to i64
  %26 = shl nuw nsw i64 %25, 3
  br i1 %.not9.i10.i.i, label %29, label %27

27:                                               ; preds = %21
  %28 = tail call ptr @realloc(ptr noundef nonnull %24, i64 noundef %26) #12
  br label %31

29:                                               ; preds = %21
  %30 = tail call noalias ptr @malloc(i64 noundef %26) #13
  br label %31

31:                                               ; preds = %29, %27
  %32 = phi ptr [ %28, %27 ], [ %30, %29 ]
  store ptr %32, ptr %23, align 8, !tbaa !26
  store i32 %22, ptr %6, align 8, !tbaa !25
  br label %Aig_ManFetchMemory.exit

Aig_ManFetchMemory.exit:                          ; preds = %.Vec_PtrGrow.exit11_crit_edge.i.i, %Vec_PtrGrow.exit.i.i, %31
  %33 = phi ptr [ %.pre.i.i, %.Vec_PtrGrow.exit11_crit_edge.i.i ], [ %32, %31 ], [ %20, %Vec_PtrGrow.exit.i.i ]
  %34 = load i32, ptr %7, align 4, !tbaa !22
  %35 = add nsw i32 %34, 1
  store i32 %35, ptr %7, align 4, !tbaa !22
  %36 = sext i32 %34 to i64
  %37 = getelementptr inbounds ptr, ptr %33, i64 %36
  store ptr %4, ptr %37, align 8, !tbaa !27
  %38 = getelementptr inbounds nuw i8, ptr %4, i64 24
  %39 = load i64, ptr %38, align 8
  %40 = and i64 %39, -8
  %41 = or disjoint i64 %40, 2
  store i64 %41, ptr %38, align 8
  %42 = getelementptr inbounds nuw i8, ptr %0, i64 16
  %43 = load ptr, ptr %42, align 8, !tbaa !28
  %44 = getelementptr inbounds nuw i8, ptr %43, i64 4
  %45 = load i32, ptr %44, align 4, !tbaa !22
  %46 = load i32, ptr %43, align 8, !tbaa !25
  %47 = icmp eq i32 %45, %46
  br i1 %47, label %48, label %.Vec_PtrGrow.exit11_crit_edge.i

.Vec_PtrGrow.exit11_crit_edge.i:                  ; preds = %Aig_ManFetchMemory.exit
  %.phi.trans.insert.i = getelementptr inbounds nuw i8, ptr %43, i64 8
  %.pre.i = load ptr, ptr %.phi.trans.insert.i, align 8, !tbaa !26
  br label %Vec_PtrPush.exit

48:                                               ; preds = %Aig_ManFetchMemory.exit
  %49 = icmp slt i32 %45, 16
  br i1 %49, label %50, label %58

50:                                               ; preds = %48
  %51 = getelementptr inbounds nuw i8, ptr %43, i64 8
  %52 = load ptr, ptr %51, align 8, !tbaa !26
  %.not9.i.i = icmp eq ptr %52, null
  br i1 %.not9.i.i, label %55, label %53

53:                                               ; preds = %50
  %54 = tail call dereferenceable_or_null(128) ptr @realloc(ptr noundef nonnull %52, i64 noundef 128) #12
  br label %Vec_PtrGrow.exit.i

55:                                               ; preds = %50
  %56 = tail call noalias dereferenceable_or_null(128) ptr @malloc(i64 noundef 128) #13
  br label %Vec_PtrGrow.exit.i

Vec_PtrGrow.exit.i:                               ; preds = %55, %53
  %57 = phi ptr [ %54, %53 ], [ %56, %55 ]
  store ptr %57, ptr %51, align 8, !tbaa !26
  store i32 16, ptr %43, align 8, !tbaa !25
  br label %Vec_PtrPush.exit

58:                                               ; preds = %48
  %59 = shl nuw nsw i32 %45, 1
  %60 = getelementptr inbounds nuw i8, ptr %43, i64 8
  %61 = load ptr, ptr %60, align 8, !tbaa !26
  %.not9.i10.i = icmp eq ptr %61, null
  %62 = zext nneg i32 %59 to i64
  %63 = shl nuw nsw i64 %62, 3
  br i1 %.not9.i10.i, label %66, label %64

64:                                               ; preds = %58
  %65 = tail call ptr @realloc(ptr noundef nonnull %61, i64 noundef %63) #12
  br label %68

66:                                               ; preds = %58
  %67 = tail call noalias ptr @malloc(i64 noundef %63) #13
  br label %68

68:                                               ; preds = %66, %64
  %69 = phi ptr [ %65, %64 ], [ %67, %66 ]
  store ptr %69, ptr %60, align 8, !tbaa !26
  store i32 %59, ptr %43, align 8, !tbaa !25
  br label %Vec_PtrPush.exit

Vec_PtrPush.exit:                                 ; preds = %.Vec_PtrGrow.exit11_crit_edge.i, %Vec_PtrGrow.exit.i, %68
  %70 = phi ptr [ %.pre.i, %.Vec_PtrGrow.exit11_crit_edge.i ], [ %69, %68 ], [ %57, %Vec_PtrGrow.exit.i ]
  %71 = load i32, ptr %44, align 4, !tbaa !22
  %72 = add nsw i32 %71, 1
  store i32 %72, ptr %44, align 4, !tbaa !22
  %73 = sext i32 %71 to i64
  %74 = getelementptr inbounds ptr, ptr %70, i64 %73
  store ptr %4, ptr %74, align 8, !tbaa !27
  %75 = getelementptr inbounds nuw i8, ptr %0, i64 136
  %76 = load i32, ptr %75, align 8, !tbaa !29
  %77 = add nsw i32 %76, 1
  store i32 %77, ptr %75, align 8, !tbaa !29
  ret ptr %4
}